; Function Attrs: nounwind uwtable
define range(i32 -1, 1) i32 @H5D__flush_real(ptr noundef %0) local_unnamed_addr #0 {
  %2 = alloca i64, align 8
  call void @llvm.lifetime.start.p0(i64 8, ptr nonnull %2) #12
  store i64 -1, ptr %2, align 8, !tbaa !10
  %3 = getelementptr inbounds nuw i8, ptr %0, i64 8
  %4 = load i64, ptr %3, align 8, !tbaa !82
  call void @H5AC_tag(i64 noundef %4, ptr noundef nonnull %2) #12
  %5 = load i8, ptr @H5D_init_g, align 1, !tbaa !3, !range !7, !noundef !8
  %6 = trunc nuw i8 %5 to i1
  %7 = load i8, ptr @H5_libterm_g, align 1, !range !7
  %8 = trunc nuw i8 %7 to i1
  %9 = xor i1 %8, true
  %10 = select i1 %6, i1 true, i1 %9
  br i1 %10, label %11, label %29, !prof !9

11:                                               ; preds = %1
  %12 = getelementptr inbounds nuw i8, ptr %0, i64 48
  %13 = load ptr, ptr %12, align 8, !tbaa !52
  %14 = getelementptr inbounds nuw i8, ptr %13, i64 8
  %15 = load i8, ptr %14, align 8, !tbaa !101, !range !7, !noundef !8
  %16 = trunc nuw i8 %15 to i1
  br i1 %16, label %29, label %17

17:                                               ; preds = %11
  %18 = getelementptr inbounds nuw i8, ptr %13, i64 256
  %19 = load ptr, ptr %18, align 8, !tbaa !62
  %20 = getelementptr inbounds nuw i8, ptr %19, i64 80
  %21 = load ptr, ptr %20, align 8, !tbaa !102
  %.not = icmp eq ptr %21, null
  br i1 %.not, label %29, label %22

22:                                               ; preds = %17
  %23 = call i32 %21(ptr noundef nonnull %0) #12
  %24 = icmp slt i32 %23, 0
  br i1 %24, label %25, label %29

25:                                               ; preds = %22
  %26 = load i64, ptr @H5E_DATASET_g, align 8, !tbaa !10
  %27 = load i64, ptr @H5E_CANTFLUSH_g, align 8, !tbaa !10
  %28 = call i32 (ptr, ptr, i32, i64, i64, ptr, ...) @H5E_printf_stack(ptr noundef nonnull @.str.2, ptr noundef nonnull @__func__.H5D__flush_real, i32 noundef 3288, i64 noundef %26, i64 noundef %27, ptr noundef nonnull @.str.121) #12
  br label %29

29:                                               ; preds = %25, %17, %22, %11, %1
  %.0 = phi i32 [ 0, %11 ], [ -1, %25 ], [ 0, %22 ], [ 0, %17 ], [ 0, %1 ]
  %30 = load i64, ptr %2, align 8, !tbaa !10
  call void @H5AC_tag(i64 noundef %30, ptr noundef null) #12
  call void @llvm.lifetime.end.p0(i64 8, ptr nonnull %2) #12
  ret i32 %.0
}